; Function Attrs: nounwind uwtable
define { <2 x float>, float } @ma_engine_listener_get_velocity(ptr noundef %0, i32 noundef %1) local_unnamed_addr #42 {
  %3 = icmp eq ptr %0, null
  br i1 %3, label %21, label %4

4:                                                ; preds = %2
  %5 = getelementptr inbounds nuw i8, ptr %0, i64 756
  %6 = load i32, ptr %5, align 4, !tbaa !1754
  %.not = icmp ult i32 %1, %6
  br i1 %.not, label %7, label %21

7:                                                ; preds = %4
  %8 = getelementptr inbounds nuw i8, ptr %0, i64 760
  %9 = zext i32 %1 to i64
  %10 = getelementptr inbounds nuw [4 x %struct.ma_spatializer_listener], ptr %8, i64 0, i64 %9
  %11 = getelementptr inbounds nuw i8, ptr %10, i64 80
  %12 = getelementptr inbounds nuw i8, ptr %10, i64 92
  %13 = atomicrmw volatile xchg ptr %12, i32 1 acquire, align 4
  %14 = icmp eq i32 %13, 0
  br i1 %14, label %ma_spatializer_listener_get_velocity.exit, label %.preheader.i.i.i

.loopexit.i.i.i:                                  ; preds = %.lr.ph.i.i.i, %.preheader.i.i.i
  %15 = atomicrmw volatile xchg ptr %12, i32 1 acquire, align 4
  %16 = icmp eq i32 %15, 0
  br i1 %16, label %ma_spatializer_listener_get_velocity.exit, label %.preheader.i.i.i

.preheader.i.i.i:                                 ; preds = %7, %.loopexit.i.i.i
  %17 = load atomic volatile i32, ptr %12 monotonic, align 4
  %18 = icmp eq i32 %17, 1
  br i1 %18, label %.lr.ph.i.i.i, label %.loopexit.i.i.i

.lr.ph.i.i.i:                                     ; preds = %.preheader.i.i.i, %.lr.ph.i.i.i
  tail call void asm sideeffect "pause", "~{dirflag},~{fpsr},~{flags}"() #69, !srcloc !39
  %19 = load atomic volatile i32, ptr %12 monotonic, align 4
  %20 = icmp eq i32 %19, 1
  br i1 %20, label %.lr.ph.i.i.i, label %.loopexit.i.i.i, !llvm.loop !40

ma_spatializer_listener_get_velocity.exit:        ; preds = %.loopexit.i.i.i, %7
  %.sroa.03.0.copyload.i.i = load <2 x float>, ptr %11, align 4
  %.sroa.24.0..sroa_idx.i.i = getelementptr inbounds nuw i8, ptr %10, i64 88
  %.sroa.24.0.copyload.i.i = load float, ptr %.sroa.24.0..sroa_idx.i.i, align 4, !tbaa !339
  store atomic volatile i32 0, ptr %12 release, align 4
  %.fca.0.insert.i.i = insertvalue { <2 x float>, float } poison, <2 x float> %.sroa.03.0.copyload.i.i, 0
  %.fca.1.insert.i.i = insertvalue { <2 x float>, float } %.fca.0.insert.i.i, float %.sroa.24.0.copyload.i.i, 1
  br label %21

21:                                               ; preds = %2, %4, %ma_spatializer_listener_get_velocity.exit
  %.pn = phi { <2 x float>, float } [ %.fca.1.insert.i.i, %ma_spatializer_listener_get_velocity.exit ], [ zeroinitializer, %4 ], [ zeroinitializer, %2 ]
  ret { <2 x float>, float } %.pn
}